; Function Attrs: nounwind uwtable
define internal ptr @getpath_isxfile(ptr readnone captures(none) %0, ptr noundef %1) #0 {
  %3 = alloca ptr, align 8
  %4 = alloca i64, align 8
  %5 = alloca %struct.stat, align 8
  call void @llvm.lifetime.start.p0(i64 8, ptr nonnull %3) #13
  call void @llvm.lifetime.start.p0(i64 8, ptr nonnull %4) #13
  %6 = call i32 (ptr, ptr, ...) @PyArg_ParseTuple(ptr noundef %1, ptr noundef nonnull @.str.49, ptr noundef nonnull %3) #13
  %.not = icmp eq i32 %6, 0
  br i1 %.not, label %_Py_XNewRef.exit, label %7

7:                                                ; preds = %2
  %8 = load ptr, ptr %3, align 8, !tbaa !31
  %9 = call ptr @PyUnicode_AsWideCharString(ptr noundef %8, ptr noundef nonnull %4) #13
  %.not8 = icmp eq ptr %9, null
  br i1 %.not8, label %_Py_XNewRef.exit, label %10

10:                                               ; preds = %7
  call void @llvm.lifetime.start.p0(i64 144, ptr nonnull %5) #13
  %11 = call i32 @_Py_wstat(ptr noundef nonnull %9, ptr noundef nonnull %5) #13
  %12 = icmp eq i32 %11, 0
  br i1 %12, label %13, label %21

13:                                               ; preds = %10
  %14 = getelementptr inbounds nuw i8, ptr %5, i64 24
  %15 = load i32, ptr %14, align 8, !tbaa !38
  %16 = and i32 %15, 61440
  %17 = icmp eq i32 %16, 32768
  br i1 %17, label %18, label %21

18:                                               ; preds = %13
  %19 = and i32 %15, 73
  %.not9 = icmp eq i32 %19, 0
  %20 = select i1 %.not9, ptr @_Py_FalseStruct, ptr @_Py_TrueStruct
  br label %21

21:                                               ; preds = %18, %13, %10
  %22 = phi ptr [ @_Py_FalseStruct, %13 ], [ @_Py_FalseStruct, %10 ], [ %20, %18 ]
  call void @PyMem_Free(ptr noundef nonnull %9) #13
  call void @llvm.lifetime.end.p0(i64 144, ptr nonnull %5) #13
  %23 = load i32, ptr %22, align 8, !tbaa !16
  %24 = icmp slt i32 %23, 0
  br i1 %24, label %_Py_XNewRef.exit, label %25

25:                                               ; preds = %21
  %26 = add nuw i32 %23, 1
  store i32 %26, ptr %22, align 8, !tbaa !16
  br label %_Py_XNewRef.exit

_Py_XNewRef.exit:                                 ; preds = %7, %25, %21, %2
  %.0 = phi ptr [ null, %2 ], [ %22, %21 ], [ %22, %25 ], [ null, %7 ]
  call void @llvm.lifetime.end.p0(i64 8, ptr nonnull %4) #13
  call void @llvm.lifetime.end.p0(i64 8, ptr nonnull %3) #13
  ret ptr %.0
}